target datalayout = "e-m:e-p270:32:32-p271:32:32-p272:64:64-i64:64-i128:128-f80:128-n8:16:32:64-S128"
target triple = "x86_64-pc-linux-gnu"

%struct.png_struct_def = type { [1 x %struct.__jmp_buf_tag], ptr, ptr, i64, ptr, ptr, ptr, ptr, ptr, ptr, ptr, ptr, ptr, i8, i8, i32, i32, i32, i32, %struct.z_stream_s, ptr, i32, i32, i32, i32, i32, i32, i32, i32, i32, i32, i32, i32, i32, i32, i32, i32, i32, i32, i32, i32, i32, i64, i32, i32, i32, ptr, ptr, ptr, ptr, i64, i32, i32, ptr, i16, i32, i16, i8, i8, i8, i8, i8, i8, i8, i8, i8, i8, i8, i8, i8, i8, i8, i16, i8, i32, %struct.png_color_16_struct, %struct.png_color_16_struct, ptr, i32, i32, %struct.png_xy, i32, i32, i32, i32, i32, ptr, ptr, ptr, ptr, ptr, ptr, %struct.png_color_8_struct, %struct.png_color_8_struct, ptr, %struct.png_color_16_struct, ptr, ptr, ptr, ptr, ptr, ptr, ptr, ptr, ptr, i32, i32, i64, i64, i64, i64, i32, i32, ptr, ptr, i32, [29 x i8], i32, ptr, ptr, i32, i32, ptr, i8, i8, i16, i16, ptr, i32, i8, ptr, ptr, ptr, ptr, ptr, ptr, ptr, i8, i32, i32, i32, i64, %struct.png_unknown_chunk_t, i64, ptr, i64, i32, i32, ptr, [4 x ptr] }
%struct.__jmp_buf_tag = type { [8 x i64], i32, %struct.__sigset_t }
%struct.__sigset_t = type { [16 x i64] }
%struct.z_stream_s = type { ptr, i32, i64, ptr, i32, i64, ptr, ptr, ptr, ptr, ptr, i32, i64, i64 }
%struct.png_xy = type { i32, i32, i32, i32, i32, i32, i32, i32 }
%struct.png_color_8_struct = type { i8, i8, i8, i8, i8 }
%struct.png_color_16_struct = type { i8, i16, i16, i16, i16 }
%struct.png_unknown_chunk_t = type { [5 x i8], ptr, i64, i8 }

@.str.26 = private unnamed_addr constant [10 x i8] c"CRC error\00", align 1

; Function Attrs: nounwind uwtable
define internal i32 @png_crc_error(ptr noalias noundef %0, i32 noundef %1) #0 {
  %3 = alloca i32, align 4
  %4 = alloca ptr, align 8
  %5 = alloca i32, align 4
  %6 = alloca [4 x i8], align 1
  %7 = alloca i32, align 4
  %8 = alloca i32, align 4
  %9 = alloca i32, align 4
  store ptr %0, ptr %4, align 8, !tbaa !3
  store i32 %1, ptr %5, align 4, !tbaa !11
  call void @llvm.lifetime.start.p0(i64 4, ptr %6) #7
  call void @llvm.lifetime.start.p0(i64 4, ptr %7) #7
  call void @llvm.lifetime.start.p0(i64 4, ptr %8) #7
  store i32 1, ptr %8, align 4, !tbaa !11
  %10 = load i32, ptr %5, align 4, !tbaa !11
  %11 = icmp ne i32 %10, 0
  br i1 %11, label %19, label %12

12:                                               ; preds = %2
  %13 = load ptr, ptr %4, align 8, !tbaa !3
  %14 = getelementptr inbounds nuw %struct.png_struct_def, ptr %13, i32 0, i32 45
  %15 = load i32, ptr %14, align 8, !tbaa !32
  %16 = lshr i32 %15, 29
  %17 = and i32 1, %16
  %18 = icmp ne i32 %17, 0
  br i1 %18, label %19, label %27

19:                                               ; preds = %12, %2
  %20 = load ptr, ptr %4, align 8, !tbaa !3
  %21 = getelementptr inbounds nuw %struct.png_struct_def, ptr %20, i32 0, i32 16
  %22 = load i32, ptr %21, align 8, !tbaa !35
  %23 = and i32 %22, 768
  %24 = icmp eq i32 %23, 768
  br i1 %24, label %25, label %26

25:                                               ; preds = %19
  store i32 0, ptr %8, align 4, !tbaa !11
  br label %26

26:                                               ; preds = %25, %19
  br label %35

27:                                               ; preds = %12
  %28 = load ptr, ptr %4, align 8, !tbaa !3
  %29 = getelementptr inbounds nuw %struct.png_struct_def, ptr %28, i32 0, i32 16
  %30 = load i32, ptr %29, align 8, !tbaa !35
  %31 = and i32 %30, 2048
  %32 = icmp ne i32 %31, 0
  br i1 %32, label %33, label %34

33:                                               ; preds = %27
  store i32 0, ptr %8, align 4, !tbaa !11
  br label %34

34:                                               ; preds = %33, %27
  br label %35

35:                                               ; preds = %34, %26
  %36 = load ptr, ptr %4, align 8, !tbaa !3
  %37 = getelementptr inbounds nuw %struct.png_struct_def, ptr %36, i32 0, i32 147
  store i32 129, ptr %37, align 4, !tbaa !30
  %38 = load ptr, ptr %4, align 8, !tbaa !3
  %39 = getelementptr inbounds [4 x i8], ptr %6, i64 0, i64 0
  call void @png_read_data(ptr noundef %38, ptr noundef %39, i64 noundef 4)
  %40 = load i32, ptr %8, align 4, !tbaa !11
  %41 = icmp ne i32 %40, 0
  br i1 %41, label %42, label %70

42:                                               ; preds = %35
  %43 = getelementptr inbounds [4 x i8], ptr %6, i64 0, i64 0
  %44 = load i8, ptr %43, align 1, !tbaa !10
  %45 = zext i8 %44 to i32
  %46 = shl i32 %45, 24
  %47 = getelementptr inbounds [4 x i8], ptr %6, i64 0, i64 0
  %48 = getelementptr inbounds i8, ptr %47, i64 1
  %49 = load i8, ptr %48, align 1, !tbaa !10
  %50 = zext i8 %49 to i32
  %51 = shl i32 %50, 16
  %52 = add i32 %46, %51
  %53 = getelementptr inbounds [4 x i8], ptr %6, i64 0, i64 0
  %54 = getelementptr inbounds i8, ptr %53, i64 2
  %55 = load i8, ptr %54, align 1, !tbaa !10
  %56 = zext i8 %55 to i32
  %57 = shl i32 %56, 8
  %58 = add i32 %52, %57
  %59 = getelementptr inbounds [4 x i8], ptr %6, i64 0, i64 0
  %60 = getelementptr inbounds i8, ptr %59, i64 3
  %61 = load i8, ptr %60, align 1, !tbaa !10
  %62 = zext i8 %61 to i32
  %63 = add i32 %58, %62
  store i32 %63, ptr %7, align 4, !tbaa !11
  %64 = load i32, ptr %7, align 4, !tbaa !11
  %65 = load ptr, ptr %4, align 8, !tbaa !3
  %66 = getelementptr inbounds nuw %struct.png_struct_def, ptr %65, i32 0, i32 52
  %67 = load i32, ptr %66, align 4, !tbaa !111
  %68 = icmp ne i32 %64, %67
  %69 = zext i1 %68 to i32
  store i32 %69, ptr %3, align 4
  store i32 1, ptr %9, align 4
  br label %71

70:                                               ; preds = %35
  store i32 0, ptr %3, align 4
  store i32 1, ptr %9, align 4
  br label %71

71:                                               ; preds = %70, %42
  call void @llvm.lifetime.end.p0(i64 4, ptr %8) #7
  call void @llvm.lifetime.end.p0(i64 4, ptr %7) #7
  call void @llvm.lifetime.end.p0(i64 4, ptr %6) #7
  %72 = load i32, ptr %3, align 4
  ret i32 %72
}

; Function Attrs: nounwind uwtable
define void @png_crc_read(ptr noalias noundef %0, ptr noundef %1, i32 noundef %2) #0 {
  %4 = alloca ptr, align 8
  %5 = alloca ptr, align 8
  %6 = alloca i32, align 4
  store ptr %0, ptr %4, align 8, !tbaa !3
  store ptr %1, ptr %5, align 8, !tbaa !8
  store i32 %2, ptr %6, align 4, !tbaa !11
  %7 = load ptr, ptr %4, align 8, !tbaa !3
  %8 = icmp eq ptr %7, null
  br i1 %8, label %9, label %10

9:                                                ; preds = %3
  br label %19

10:                                               ; preds = %3
  %11 = load ptr, ptr %4, align 8, !tbaa !3
  %12 = load ptr, ptr %5, align 8, !tbaa !8
  %13 = load i32, ptr %6, align 4, !tbaa !11
  %14 = zext i32 %13 to i64
  call void @png_read_data(ptr noundef %11, ptr noundef %12, i64 noundef %14)
  %15 = load ptr, ptr %4, align 8, !tbaa !3
  %16 = load ptr, ptr %5, align 8, !tbaa !8
  %17 = load i32, ptr %6, align 4, !tbaa !11
  %18 = zext i32 %17 to i64
  call void @png_calculate_crc(ptr noundef %15, ptr noundef %16, i64 noundef %18)
  br label %19

19:                                               ; preds = %10, %9
  ret void
}

; Function Attrs: nounwind uwtable
define internal i32 @png_crc_finish_critical(ptr noalias noundef %0, i32 noundef %1, i32 noundef %2) #0 {
  %4 = alloca i32, align 4
  %5 = alloca ptr, align 8
  %6 = alloca i32, align 4
  %7 = alloca i32, align 4
  %8 = alloca i32, align 4
  %9 = alloca [1024 x i8], align 16
  store ptr %0, ptr %5, align 8, !tbaa !3
  store i32 %1, ptr %6, align 4, !tbaa !11
  store i32 %2, ptr %7, align 4, !tbaa !11
  br label %10

10:                                               ; preds = %19, %3
  %11 = load i32, ptr %6, align 4, !tbaa !11
  %12 = icmp ugt i32 %11, 0
  br i1 %12, label %13, label %26

13:                                               ; preds = %10
  call void @llvm.lifetime.start.p0(i64 4, ptr %8) #7
  call void @llvm.lifetime.start.p0(i64 1024, ptr %9) #7
  store i32 1024, ptr %8, align 4, !tbaa !11
  %14 = load i32, ptr %8, align 4, !tbaa !11
  %15 = load i32, ptr %6, align 4, !tbaa !11
  %16 = icmp ugt i32 %14, %15
  br i1 %16, label %17, label %19

17:                                               ; preds = %13
  %18 = load i32, ptr %6, align 4, !tbaa !11
  store i32 %18, ptr %8, align 4, !tbaa !11
  br label %19

19:                                               ; preds = %17, %13
  %20 = load i32, ptr %8, align 4, !tbaa !11
  %21 = load i32, ptr %6, align 4, !tbaa !11
  %22 = sub i32 %21, %20
  store i32 %22, ptr %6, align 4, !tbaa !11
  %23 = load ptr, ptr %5, align 8, !tbaa !3
  %24 = getelementptr inbounds [1024 x i8], ptr %9, i64 0, i64 0
  %25 = load i32, ptr %8, align 4, !tbaa !11
  call void @png_crc_read(ptr noundef %23, ptr noundef %24, i32 noundef %25)
  call void @llvm.lifetime.end.p0(i64 1024, ptr %9) #7
  call void @llvm.lifetime.end.p0(i64 4, ptr %8) #7
  br label %10, !llvm.loop !33

26:                                               ; preds = %10
  %27 = load i32, ptr %7, align 4, !tbaa !11
  %28 = icmp ne i32 %27, 0
  br i1 %28, label %29, label %36

29:                                               ; preds = %26
  %30 = load ptr, ptr %5, align 8, !tbaa !3
  %31 = getelementptr inbounds nuw %struct.png_struct_def, ptr %30, i32 0, i32 16
  %32 = load i32, ptr %31, align 8, !tbaa !35
  %33 = and i32 %32, 2048
  %34 = icmp ne i32 %33, 0
  br i1 %34, label %35, label %36

35:                                               ; preds = %29
  store i32 0, ptr %7, align 4, !tbaa !11
  br label %36

36:                                               ; preds = %35, %29, %26
  %37 = load ptr, ptr %5, align 8, !tbaa !3
  %38 = load i32, ptr %7, align 4, !tbaa !11
  %39 = call i32 @png_crc_error(ptr noundef %37, i32 noundef %38)
  %40 = icmp ne i32 %39, 0
  br i1 %40, label %41, label %68

41:                                               ; preds = %36
  %42 = load i32, ptr %7, align 4, !tbaa !11
  %43 = icmp ne i32 %42, 0
  br i1 %43, label %51, label %44

44:                                               ; preds = %41
  %45 = load ptr, ptr %5, align 8, !tbaa !3
  %46 = getelementptr inbounds nuw %struct.png_struct_def, ptr %45, i32 0, i32 45
  %47 = load i32, ptr %46, align 8, !tbaa !32
  %48 = lshr i32 %47, 29
  %49 = and i32 1, %48
  %50 = icmp ne i32 %49, 0
  br i1 %50, label %51, label %57

51:                                               ; preds = %44, %41
  %52 = load ptr, ptr %5, align 8, !tbaa !3
  %53 = getelementptr inbounds nuw %struct.png_struct_def, ptr %52, i32 0, i32 16
  %54 = load i32, ptr %53, align 8, !tbaa !35
  %55 = and i32 %54, 512
  %56 = icmp eq i32 %55, 0
  br i1 %56, label %63, label %65

57:                                               ; preds = %44
  %58 = load ptr, ptr %5, align 8, !tbaa !3
  %59 = getelementptr inbounds nuw %struct.png_struct_def, ptr %58, i32 0, i32 16
  %60 = load i32, ptr %59, align 8, !tbaa !35
  %61 = and i32 %60, 1024
  %62 = icmp ne i32 %61, 0
  br i1 %62, label %63, label %65

63:                                               ; preds = %57, %51
  %64 = load ptr, ptr %5, align 8, !tbaa !3
  call void @png_chunk_warning(ptr noundef %64, ptr noundef @.str.26)
  br label %67

65:                                               ; preds = %57, %51
  %66 = load ptr, ptr %5, align 8, !tbaa !3
  call void @png_chunk_error(ptr noundef %66, ptr noundef @.str.26) #8
  unreachable

67:                                               ; preds = %63
  store i32 1, ptr %4, align 4
  br label %69

68:                                               ; preds = %36
  store i32 0, ptr %4, align 4
  br label %69

69:                                               ; preds = %68, %67
  %70 = load i32, ptr %4, align 4
  ret i32 %70
}