; Function Attrs: nounwind uwtable
define internal fastcc range(i32 0, 2) i32 @png_crc_finish_critical(ptr noalias noundef %0, i32 noundef %1, i32 noundef range(i32 0, 2) %2) unnamed_addr #0 {
  %4 = alloca [4 x i8], align 1
  %5 = alloca [1024 x i8], align 16
  %.not41 = icmp eq i32 %1, 0
  br i1 %.not41, label %._crit_edge, label %.lr.ph

.lr.ph:                                           ; preds = %3
  %6 = icmp eq ptr %0, null
  br i1 %6, label %png_crc_read.exit.us, label %png_crc_read.exit

png_crc_read.exit.us:                             ; preds = %.lr.ph, %png_crc_read.exit.us
  %.01942.us = phi i32 [ %7, %png_crc_read.exit.us ], [ %1, %.lr.ph ]
  call void @llvm.lifetime.start.p0(i64 1024, ptr nonnull %5) #12
  %7 = add i32 %.01942.us, -1024
  call void @llvm.lifetime.end.p0(i64 1024, ptr nonnull %5) #12
  %.not.us = icmp ult i32 %.01942.us, 1025
  br i1 %.not.us, label %._crit_edge, label %png_crc_read.exit.us, !llvm.loop !29

png_crc_read.exit:                                ; preds = %.lr.ph, %png_crc_read.exit
  %.01942 = phi i32 [ %8, %png_crc_read.exit ], [ %1, %.lr.ph ]
  call void @llvm.lifetime.start.p0(i64 1024, ptr nonnull %5) #12
  %spec.select = call i32 @llvm.umin.i32(i32 %.01942, i32 1024)
  %8 = sub i32 %.01942, %spec.select
  %9 = zext nneg i32 %spec.select to i64
  call void @png_read_data(ptr noundef nonnull %0, ptr noundef nonnull %5, i64 noundef %9) #12
  call void @png_calculate_crc(ptr noundef nonnull %0, ptr noundef nonnull %5, i64 noundef %9) #12
  call void @llvm.lifetime.end.p0(i64 1024, ptr nonnull %5) #12
  %.not = icmp eq i32 %8, 0
  br i1 %.not, label %._crit_edge, label %png_crc_read.exit, !llvm.loop !29

._crit_edge:                                      ; preds = %png_crc_read.exit, %png_crc_read.exit.us, %3
  %.not22 = icmp eq i32 %2, 0
  br i1 %.not22, label %15, label %10

10:                                               ; preds = %._crit_edge
  %11 = getelementptr inbounds nuw i8, ptr %0, i64 304
  %12 = load i32, ptr %11, align 8, !tbaa !31
  %13 = and i32 %12, 2048
  %.not23 = icmp eq i32 %13, 0
  br i1 %.not23, label %14, label %15

14:                                               ; preds = %10
  call void @llvm.experimental.noalias.scope.decl(metadata !32)
  call void @llvm.lifetime.start.p0(i64 4, ptr nonnull %4) #12, !noalias !32
  br label %._crit_edge44

15:                                               ; preds = %._crit_edge, %10
  call void @llvm.lifetime.start.p0(i64 4, ptr nonnull %4) #12, !noalias !35
  %16 = getelementptr inbounds nuw i8, ptr %0, i64 544
  %17 = load i32, ptr %16, align 8, !tbaa !28, !alias.scope !32
  %18 = and i32 %17, 536870912
  %.not10.i = icmp eq i32 %18, 0
  %19 = getelementptr inbounds nuw i8, ptr %0, i64 304
  %20 = load i32, ptr %19, align 8, !tbaa !31, !alias.scope !32
  br i1 %.not10.i, label %25, label %._crit_edge44

._crit_edge44:                                    ; preds = %15, %14
  %21 = phi i32 [ %12, %14 ], [ %20, %15 ]
  %.not2535 = phi i1 [ false, %14 ], [ true, %15 ]
  %22 = and i32 %21, 768
  %23 = icmp eq i32 %22, 768
  %24 = getelementptr inbounds nuw i8, ptr %0, i64 1196
  store i32 129, ptr %24, align 4, !tbaa !23, !alias.scope !32
  call void @png_read_data(ptr noundef nonnull %0, ptr noundef nonnull %4, i64 noundef 4) #12
  br i1 %23, label %png_crc_error.exit.thread, label %png_crc_error.exit

25:                                               ; preds = %15
  %26 = and i32 %20, 2048
  %.not11.not.i = icmp eq i32 %26, 0
  %27 = getelementptr inbounds nuw i8, ptr %0, i64 1196
  store i32 129, ptr %27, align 4, !tbaa !23, !alias.scope !32
  call void @png_read_data(ptr noundef nonnull %0, ptr noundef nonnull %4, i64 noundef 4) #12
  br i1 %.not11.not.i, label %png_crc_error.exit, label %png_crc_error.exit.thread

png_crc_error.exit.thread:                        ; preds = %25, %._crit_edge44
  call void @llvm.lifetime.end.p0(i64 4, ptr nonnull %4) #12, !noalias !32
  br label %63

png_crc_error.exit:                               ; preds = %._crit_edge44, %25
  %.not2533 = phi i1 [ true, %25 ], [ %.not2535, %._crit_edge44 ]
  %28 = load i8, ptr %4, align 1, !tbaa !3, !noalias !32
  %29 = zext i8 %28 to i32
  %30 = shl nuw i32 %29, 24
  %31 = getelementptr inbounds nuw i8, ptr %4, i64 1
  %32 = load i8, ptr %31, align 1, !tbaa !3, !noalias !32
  %33 = zext i8 %32 to i32
  %34 = shl nuw nsw i32 %33, 16
  %35 = or disjoint i32 %34, %30
  %36 = getelementptr inbounds nuw i8, ptr %4, i64 2
  %37 = load i8, ptr %36, align 1, !tbaa !3, !noalias !32
  %38 = zext i8 %37 to i32
  %39 = shl nuw nsw i32 %38, 8
  %40 = or disjoint i32 %35, %39
  %41 = getelementptr inbounds nuw i8, ptr %4, i64 3
  %42 = load i8, ptr %41, align 1, !tbaa !3, !noalias !32
  %43 = zext i8 %42 to i32
  %44 = or disjoint i32 %40, %43
  %45 = getelementptr inbounds nuw i8, ptr %0, i64 596
  %46 = load i32, ptr %45, align 4, !tbaa !37, !alias.scope !32
  %.not40 = icmp eq i32 %44, %46
  call void @llvm.lifetime.end.p0(i64 4, ptr nonnull %4) #12, !noalias !32
  br i1 %.not40, label %63, label %47

47:                                               ; preds = %png_crc_error.exit
  br i1 %.not2533, label %48, label %52

48:                                               ; preds = %47
  %49 = getelementptr inbounds nuw i8, ptr %0, i64 544
  %50 = load i32, ptr %49, align 8, !tbaa !28
  %51 = and i32 %50, 536870912
  %.not26 = icmp eq i32 %51, 0
  br i1 %.not26, label %57, label %52

52:                                               ; preds = %48, %47
  %53 = getelementptr inbounds nuw i8, ptr %0, i64 304
  %54 = load i32, ptr %53, align 8, !tbaa !31
  %55 = and i32 %54, 512
  %56 = icmp eq i32 %55, 0
  br i1 %56, label %61, label %62

57:                                               ; preds = %48
  %58 = getelementptr inbounds nuw i8, ptr %0, i64 304
  %59 = load i32, ptr %58, align 8, !tbaa !31
  %60 = and i32 %59, 1024
  %.not27 = icmp eq i32 %60, 0
  br i1 %.not27, label %62, label %61

61:                                               ; preds = %57, %52
  call void @png_chunk_warning(ptr noundef nonnull %0, ptr noundef nonnull @.str.26) #12
  br label %63

62:                                               ; preds = %57, %52
  call void @png_chunk_error(ptr noundef nonnull %0, ptr noundef nonnull @.str.26) #11
  unreachable

63:                                               ; preds = %png_crc_error.exit.thread, %png_crc_error.exit, %61
  %.020 = phi i32 [ 1, %61 ], [ 0, %png_crc_error.exit ], [ 0, %png_crc_error.exit.thread ]
  ret i32 %.020
}